; Function Attrs: mustprogress nofree norecurse nosync nounwind memory(readwrite, inaccessiblemem: none) uwtable
define internal void @_ZNK19OpenColorIO_v2_4dev12_GLOBAL__N_124MatrixWithOffsetRenderer5applyEPKvPvl(ptr nocapture noundef nonnull readonly align 8 dereferenceable(88) %this, ptr nocapture noundef readonly %inImg, ptr nocapture noundef writeonly %outImg, i64 noundef %numPixels) unnamed_addr #12 align 2 {
entry:
  %m_column1 = getelementptr inbounds i8, ptr %this, i64 8
  %arrayidx3 = getelementptr inbounds i8, ptr %this, i64 16
  %0 = load <4 x float>, ptr %arrayidx3, align 8
  %arrayidx5 = getelementptr inbounds i8, ptr %this, i64 12
  %1 = load float, ptr %arrayidx5, align 4
  %2 = load <4 x float>, ptr %m_column1, align 8
  %vecinit1.i114 = insertelement <4 x float> %2, float %1, i64 1
  %vecinit3.i11628 = shufflevector <4 x float> %vecinit1.i114, <4 x float> %0, <4 x i32> <i32 0, i32 1, i32 4, i32 5>
  %m_column2 = getelementptr inbounds i8, ptr %this, i64 24
  %arrayidx10 = getelementptr inbounds i8, ptr %this, i64 32
  %3 = load <4 x float>, ptr %arrayidx10, align 8
  %arrayidx12 = getelementptr inbounds i8, ptr %this, i64 28
  %4 = load float, ptr %arrayidx12, align 4
  %5 = load <4 x float>, ptr %m_column2, align 8
  %vecinit1.i105 = insertelement <4 x float> %5, float %4, i64 1
  %vecinit3.i10727 = shufflevector <4 x float> %vecinit1.i105, <4 x float> %3, <4 x i32> <i32 0, i32 1, i32 4, i32 5>
  %m_column3 = getelementptr inbounds i8, ptr %this, i64 40
  %arrayidx18 = getelementptr inbounds i8, ptr %this, i64 48
  %6 = load <4 x float>, ptr %arrayidx18, align 8
  %arrayidx20 = getelementptr inbounds i8, ptr %this, i64 44
  %7 = load float, ptr %arrayidx20, align 4
  %8 = load <4 x float>, ptr %m_column3, align 8
  %vecinit1.i96 = insertelement <4 x float> %8, float %7, i64 1
  %vecinit3.i9826 = shufflevector <4 x float> %vecinit1.i96, <4 x float> %6, <4 x i32> <i32 0, i32 1, i32 4, i32 5>
  %m_column4 = getelementptr inbounds i8, ptr %this, i64 56
  %arrayidx26 = getelementptr inbounds i8, ptr %this, i64 64
  %9 = load <4 x float>, ptr %arrayidx26, align 8
  %arrayidx28 = getelementptr inbounds i8, ptr %this, i64 60
  %10 = load float, ptr %arrayidx28, align 4
  %11 = load <4 x float>, ptr %m_column4, align 8
  %vecinit1.i87 = insertelement <4 x float> %11, float %10, i64 1
  %vecinit3.i8925 = shufflevector <4 x float> %vecinit1.i87, <4 x float> %9, <4 x i32> <i32 0, i32 1, i32 4, i32 5>
  %m_offset = getelementptr inbounds i8, ptr %this, i64 72
  %arrayidx34 = getelementptr inbounds i8, ptr %this, i64 80
  %12 = load <2 x float>, ptr %arrayidx34, align 8
  %arrayidx36 = getelementptr inbounds i8, ptr %this, i64 76
  %13 = load float, ptr %arrayidx36, align 4
  %14 = load <4 x float>, ptr %m_offset, align 8
  %vecinit1.i78 = insertelement <4 x float> %14, float %13, i64 1
  %15 = shufflevector <2 x float> %12, <2 x float> poison, <4 x i32> <i32 0, i32 1, i32 poison, i32 poison>
  %vecinit3.i8024 = shufflevector <4 x float> %vecinit1.i78, <4 x float> %15, <4 x i32> <i32 0, i32 1, i32 4, i32 5>
  %cmp20 = icmp sgt i64 %numPixels, 0
  br i1 %cmp20, label %for.body, label %for.end

for.body:                                         ; preds = %entry, %for.body
  %in.023 = phi ptr [ %add.ptr, %for.body ], [ %inImg, %entry ]
  %out.022 = phi ptr [ %add.ptr56, %for.body ], [ %outImg, %entry ]
  %idx.021 = phi i64 [ %inc, %for.body ], [ 0, %entry ]
  %16 = load float, ptr %in.023, align 4
  %vecinit.i71 = insertelement <4 x float> poison, float %16, i64 0
  %vecinit3.i74 = shufflevector <4 x float> %vecinit.i71, <4 x float> poison, <4 x i32> zeroinitializer
  %arrayidx42 = getelementptr inbounds i8, ptr %in.023, i64 4
  %17 = load float, ptr %arrayidx42, align 4
  %vecinit.i65 = insertelement <4 x float> poison, float %17, i64 0
  %vecinit3.i68 = shufflevector <4 x float> %vecinit.i65, <4 x float> poison, <4 x i32> zeroinitializer
  %arrayidx44 = getelementptr inbounds i8, ptr %in.023, i64 8
  %18 = load float, ptr %arrayidx44, align 4
  %vecinit.i59 = insertelement <4 x float> poison, float %18, i64 0
  %vecinit3.i62 = shufflevector <4 x float> %vecinit.i59, <4 x float> poison, <4 x i32> zeroinitializer
  %arrayidx46 = getelementptr inbounds i8, ptr %in.023, i64 12
  %19 = load float, ptr %arrayidx46, align 4
  %vecinit.i = insertelement <4 x float> poison, float %19, i64 0
  %vecinit3.i = shufflevector <4 x float> %vecinit.i, <4 x float> poison, <4 x i32> zeroinitializer
  %mul.i125 = fmul <4 x float> %vecinit3.i11628, %vecinit3.i74
  %mul.i122 = fmul <4 x float> %vecinit3.i10727, %vecinit3.i68
  %mul.i119 = fmul <4 x float> %vecinit3.i9826, %vecinit3.i62
  %mul.i = fmul <4 x float> %vecinit3.i8925, %vecinit3.i
  %add.i136 = fadd <4 x float> %mul.i125, %mul.i122
  %add.i133 = fadd <4 x float> %mul.i119, %mul.i
  %add.i130 = fadd <4 x float> %add.i136, %add.i133
  %add.i = fadd <4 x float> %vecinit3.i8024, %add.i130
  store <4 x float> %add.i, ptr %out.022, align 1
  %add.ptr = getelementptr inbounds i8, ptr %in.023, i64 16
  %add.ptr56 = getelementptr inbounds i8, ptr %out.022, i64 16
  %inc = add nuw nsw i64 %idx.021, 1
  %exitcond.not = icmp eq i64 %inc, %numPixels
  br i1 %exitcond.not, label %for.end, label %for.body, !llvm.loop !19

for.end:                                          ; preds = %for.body, %entry
  ret void
}